target datalayout = "e-m:e-p270:32:32-p271:32:32-p272:64:64-i64:64-i128:128-f80:128-n8:16:32:64-S128"
target triple = "x86_64-pc-linux-gnu"

%struct.expert_field = type { i32, i32 }
%struct.nstime_t = type { i64, i32 }
%struct._packet_info = type { ptr, ptr, i32, i32, %struct.nstime_t, %struct.nstime_t, %struct.nstime_t, i8, ptr, ptr, ptr, ptr, %struct._address, %struct._address, %struct._address, %struct._address, %struct._address, %struct._address, i32, ptr, i8, [3 x i8], %struct.anon, i32, i32, i32, i32, ptr, i8, ptr, ptr, i16, i16, i32, i32, i16, i32, i32, ptr, ptr, ptr, i8, i8, i16, i16, i16, i32, i16, i16, ptr, ptr, ptr, ptr, ptr, i32, i32 }
%struct._address = type { i32, i32, ptr, ptr }
%struct.anon = type { i8, [3 x i8] }

@hf_pfcp_remote_gtp_u_peer_ipv4 = internal global i32 0, align 4
@hf_pfcp_remote_gtp_u_peer_ipv6 = internal global i32 0, align 4
@hf_pfcp_remote_gtp_u_peer_length_di = internal global i32 0, align 4
@hf_pfcp_remote_gtp_u_peer_length_ni = internal global i32 0, align 4
@hf_pfcp_remote_gtp_u_peer_time_stamp = internal global i32 0, align 4
@ei_pfcp_ie_data_not_decoded = internal global %struct.expert_field zeroinitializer, align 4
@.str.2669 = private unnamed_addr constant [9 x i8] c"IPv4 %s \00", align 1
@.str.2670 = private unnamed_addr constant [9 x i8] c"IPv6 %s \00", align 1

; Function Attrs: null_pointer_is_valid sspstrong uwtable
define internal void @dissect_pfcp_remote_gtp_u_peer(ptr noundef %0, ptr noundef %1, ptr noundef %2, ptr noundef %3, i16 noundef zeroext %4, i8 noundef zeroext %5, ptr noundef %6) #0 {
  %8 = alloca ptr, align 8
  %9 = alloca ptr, align 8
  %10 = alloca ptr, align 8
  %11 = alloca ptr, align 8
  %12 = alloca i16, align 2
  %13 = alloca i8, align 1
  %14 = alloca ptr, align 8
  %15 = alloca i32, align 4
  %16 = alloca i64, align 8
  %17 = alloca i32, align 4
  %18 = alloca i32, align 4
  store ptr %0, ptr %8, align 8
  store ptr %1, ptr %9, align 8
  store ptr %2, ptr %10, align 8
  store ptr %3, ptr %11, align 8
  store i16 %4, ptr %12, align 2
  store i8 %5, ptr %13, align 1
  store ptr %6, ptr %14, align 8
  call void @llvm.lifetime.start.p0(i64 4, ptr %15) #13
  store i32 0, ptr %15, align 4
  call void @llvm.lifetime.start.p0(i64 8, ptr %16) #13
  call void @llvm.lifetime.start.p0(i64 4, ptr %17) #13
  call void @llvm.lifetime.start.p0(i64 4, ptr %18) #13
  %19 = load ptr, ptr %10, align 8
  %20 = load ptr, ptr %8, align 8
  %21 = load i32, ptr %15, align 4
  call void @proto_tree_add_bitmask_list_ret_uint64(ptr noundef %19, ptr noundef %20, i32 noundef %21, i32 noundef 1, ptr noundef @dissect_pfcp_remote_gtp_u_peer.pfcp_remote_gtp_u_peer_flags, i32 noundef 0, ptr noundef %16)
  %22 = load i32, ptr %15, align 4
  %23 = add i32 %22, 1
  store i32 %23, ptr %15, align 4
  %24 = load i64, ptr %16, align 8
  %25 = and i64 %24, 2
  %26 = icmp ne i64 %25, 0
  br i1 %26, label %27, label %42

27:                                               ; preds = %7
  %28 = load ptr, ptr %10, align 8
  %29 = load i32, ptr @hf_pfcp_remote_gtp_u_peer_ipv4, align 4
  %30 = load ptr, ptr %8, align 8
  %31 = load i32, ptr %15, align 4
  %32 = call ptr @proto_tree_add_item(ptr noundef %28, i32 noundef %29, ptr noundef %30, i32 noundef %31, i32 noundef 4, i32 noundef 0)
  %33 = load ptr, ptr %11, align 8
  %34 = load ptr, ptr %9, align 8
  %35 = getelementptr inbounds nuw %struct._packet_info, ptr %34, i32 0, i32 51
  %36 = load ptr, ptr %35, align 8
  %37 = load ptr, ptr %8, align 8
  %38 = load i32, ptr %15, align 4
  %39 = call ptr @tvb_address_to_str(ptr noundef %36, ptr noundef %37, i32 noundef 2, i32 noundef %38)
  call void (ptr, ptr, ...) @proto_item_append_text(ptr noundef %33, ptr noundef @.str.2669, ptr noundef %39)
  %40 = load i32, ptr %15, align 4
  %41 = add i32 %40, 4
  store i32 %41, ptr %15, align 4
  br label %42

42:                                               ; preds = %27, %7
  %43 = load i64, ptr %16, align 8
  %44 = and i64 %43, 1
  %45 = icmp ne i64 %44, 0
  br i1 %45, label %46, label %61

46:                                               ; preds = %42
  %47 = load ptr, ptr %10, align 8
  %48 = load i32, ptr @hf_pfcp_remote_gtp_u_peer_ipv6, align 4
  %49 = load ptr, ptr %8, align 8
  %50 = load i32, ptr %15, align 4
  %51 = call ptr @proto_tree_add_item(ptr noundef %47, i32 noundef %48, ptr noundef %49, i32 noundef %50, i32 noundef 16, i32 noundef 0)
  %52 = load ptr, ptr %11, align 8
  %53 = load ptr, ptr %9, align 8
  %54 = getelementptr inbounds nuw %struct._packet_info, ptr %53, i32 0, i32 51
  %55 = load ptr, ptr %54, align 8
  %56 = load ptr, ptr %8, align 8
  %57 = load i32, ptr %15, align 4
  %58 = call ptr @tvb_address_to_str(ptr noundef %55, ptr noundef %56, i32 noundef 3, i32 noundef %57)
  call void (ptr, ptr, ...) @proto_item_append_text(ptr noundef %52, ptr noundef @.str.2670, ptr noundef %58)
  %59 = load i32, ptr %15, align 4
  %60 = add i32 %59, 16
  store i32 %60, ptr %15, align 4
  br label %61

61:                                               ; preds = %46, %42
  %62 = load i64, ptr %16, align 8
  %63 = and i64 %62, 4
  %64 = icmp ne i64 %63, 0
  br i1 %64, label %65, label %82

65:                                               ; preds = %61
  %66 = load ptr, ptr %10, align 8
  %67 = load i32, ptr @hf_pfcp_remote_gtp_u_peer_length_di, align 4
  %68 = load ptr, ptr %8, align 8
  %69 = load i32, ptr %15, align 4
  %70 = call ptr @proto_tree_add_item_ret_uint(ptr noundef %66, i32 noundef %67, ptr noundef %68, i32 noundef %69, i32 noundef 2, i32 noundef 0, ptr noundef %17)
  %71 = load i32, ptr %15, align 4
  %72 = add i32 %71, 2
  store i32 %72, ptr %15, align 4
  %73 = load ptr, ptr %8, align 8
  %74 = load ptr, ptr %9, align 8
  %75 = load ptr, ptr %10, align 8
  %76 = load ptr, ptr %11, align 8
  %77 = load i32, ptr %15, align 4
  %78 = load i32, ptr %17, align 4
  %79 = call i32 @decode_pfcp_destination_interface(ptr noundef %73, ptr noundef %74, ptr noundef %75, ptr noundef %76, i32 noundef %77, i32 noundef %78)
  %80 = load i32, ptr %15, align 4
  %81 = add i32 %80, %79
  store i32 %81, ptr %15, align 4
  br label %82

82:                                               ; preds = %65, %61
  %83 = load i64, ptr %16, align 8
  %84 = and i64 %83, 8
  %85 = icmp ne i64 %84, 0
  br i1 %85, label %86, label %103

86:                                               ; preds = %82
  %87 = load ptr, ptr %10, align 8
  %88 = load i32, ptr @hf_pfcp_remote_gtp_u_peer_length_ni, align 4
  %89 = load ptr, ptr %8, align 8
  %90 = load i32, ptr %15, align 4
  %91 = call ptr @proto_tree_add_item_ret_uint(ptr noundef %87, i32 noundef %88, ptr noundef %89, i32 noundef %90, i32 noundef 2, i32 noundef 0, ptr noundef %18)
  %92 = load i32, ptr %15, align 4
  %93 = add i32 %92, 2
  store i32 %93, ptr %15, align 4
  %94 = load ptr, ptr %8, align 8
  %95 = load ptr, ptr %9, align 8
  %96 = load ptr, ptr %10, align 8
  %97 = load ptr, ptr %11, align 8
  %98 = load i32, ptr %15, align 4
  %99 = load i32, ptr %18, align 4
  %100 = call i32 @decode_pfcp_network_instance(ptr noundef %94, ptr noundef %95, ptr noundef %96, ptr noundef %97, i32 noundef %98, i32 noundef %99)
  %101 = load i32, ptr %15, align 4
  %102 = add i32 %101, %100
  store i32 %102, ptr %15, align 4
  br label %103

103:                                              ; preds = %86, %82
  %104 = load i64, ptr %16, align 8
  %105 = and i64 %104, 8
  %106 = icmp ne i64 %105, 0
  br i1 %106, label %107, label %115

107:                                              ; preds = %103
  %108 = load ptr, ptr %10, align 8
  %109 = load i32, ptr @hf_pfcp_remote_gtp_u_peer_time_stamp, align 4
  %110 = load ptr, ptr %8, align 8
  %111 = load i32, ptr %15, align 4
  %112 = call ptr @proto_tree_add_item(ptr noundef %108, i32 noundef %109, ptr noundef %110, i32 noundef %111, i32 noundef 4, i32 noundef 2)
  %113 = load i32, ptr %15, align 4
  %114 = add i32 %113, 4
  store i32 %114, ptr %15, align 4
  br label %115

115:                                              ; preds = %107, %103
  %116 = load i32, ptr %15, align 4
  %117 = load i16, ptr %12, align 2
  %118 = zext i16 %117 to i32
  %119 = icmp slt i32 %116, %118
  br i1 %119, label %120, label %126

120:                                              ; preds = %115
  %121 = load ptr, ptr %10, align 8
  %122 = load ptr, ptr %9, align 8
  %123 = load ptr, ptr %8, align 8
  %124 = load i32, ptr %15, align 4
  %125 = call ptr @proto_tree_add_expert(ptr noundef %121, ptr noundef %122, ptr noundef @ei_pfcp_ie_data_not_decoded, ptr noundef %123, i32 noundef %124, i32 noundef -1)
  br label %126

126:                                              ; preds = %120, %115
  call void @llvm.lifetime.end.p0(i64 4, ptr %18) #13
  call void @llvm.lifetime.end.p0(i64 4, ptr %17) #13
  call void @llvm.lifetime.end.p0(i64 8, ptr %16) #13
  call void @llvm.lifetime.end.p0(i64 4, ptr %15) #13
  ret void
}