; Function Attrs: null_pointer_is_valid sspstrong uwtable
define internal void @dissect_pfcp_remote_gtp_u_peer(ptr noundef %0, ptr noundef %1, ptr noundef %2, ptr noundef %3, i16 noundef zeroext %4, i8 zeroext %5, ptr readnone captures(none) %6) #0 {
  %8 = alloca i64, align 8
  %9 = alloca i32, align 4
  %10 = alloca i32, align 4
  call void @llvm.lifetime.start.p0(i64 8, ptr nonnull %8) #15
  call void @llvm.lifetime.start.p0(i64 4, ptr nonnull %9) #15
  call void @llvm.lifetime.start.p0(i64 4, ptr nonnull %10) #15
  call void @proto_tree_add_bitmask_list_ret_uint64(ptr noundef %2, ptr noundef %0, i32 noundef 0, i32 noundef 1, ptr noundef nonnull @dissect_pfcp_remote_gtp_u_peer.pfcp_remote_gtp_u_peer_flags, i32 noundef 0, ptr noundef nonnull %8)
  %11 = load i64, ptr %8, align 8
  %12 = and i64 %11, 2
  %.not = icmp eq i64 %12, 0
  br i1 %.not, label %19, label %13

13:                                               ; preds = %7
  %14 = load i32, ptr @hf_pfcp_remote_gtp_u_peer_ipv4, align 4
  %15 = call ptr @proto_tree_add_item(ptr noundef %2, i32 noundef %14, ptr noundef %0, i32 noundef 1, i32 noundef 4, i32 noundef 0)
  %16 = getelementptr inbounds nuw i8, ptr %1, i64 408
  %17 = load ptr, ptr %16, align 8
  %18 = call ptr @tvb_address_to_str(ptr noundef %17, ptr noundef %0, i32 noundef 2, i32 noundef 1)
  call void (ptr, ptr, ...) @proto_item_append_text(ptr noundef %3, ptr noundef nonnull @.str.2669, ptr noundef %18)
  %.pre = load i64, ptr %8, align 8
  br label %19

19:                                               ; preds = %13, %7
  %20 = phi i64 [ %.pre, %13 ], [ %11, %7 ]
  %.0 = phi i32 [ 5, %13 ], [ 1, %7 ]
  %21 = and i64 %20, 1
  %.not49 = icmp eq i64 %21, 0
  br i1 %.not49, label %29, label %22

22:                                               ; preds = %19
  %23 = load i32, ptr @hf_pfcp_remote_gtp_u_peer_ipv6, align 4
  %24 = call ptr @proto_tree_add_item(ptr noundef %2, i32 noundef %23, ptr noundef %0, i32 noundef %.0, i32 noundef 16, i32 noundef 0)
  %25 = getelementptr inbounds nuw i8, ptr %1, i64 408
  %26 = load ptr, ptr %25, align 8
  %27 = call ptr @tvb_address_to_str(ptr noundef %26, ptr noundef %0, i32 noundef 3, i32 noundef %.0)
  call void (ptr, ptr, ...) @proto_item_append_text(ptr noundef %3, ptr noundef nonnull @.str.2670, ptr noundef %27)
  %28 = or disjoint i32 %.0, 16
  %.pre53 = load i64, ptr %8, align 8
  br label %29

29:                                               ; preds = %22, %19
  %30 = phi i64 [ %.pre53, %22 ], [ %20, %19 ]
  %.1 = phi i32 [ %28, %22 ], [ %.0, %19 ]
  %31 = and i64 %30, 4
  %.not50 = icmp eq i64 %31, 0
  br i1 %.not50, label %39, label %32

32:                                               ; preds = %29
  %33 = load i32, ptr @hf_pfcp_remote_gtp_u_peer_length_di, align 4
  %34 = call ptr @proto_tree_add_item_ret_uint(ptr noundef %2, i32 noundef %33, ptr noundef %0, i32 noundef %.1, i32 noundef 2, i32 noundef 0, ptr noundef nonnull %9)
  %35 = add nuw nsw i32 %.1, 2
  %36 = load i32, ptr %9, align 4
  %37 = call fastcc i32 @decode_pfcp_destination_interface(ptr noundef %0, ptr noundef %1, ptr noundef %2, ptr noundef %3, i32 noundef %35, i32 noundef %36)
  %38 = add i32 %36, %35
  %.pre54 = load i64, ptr %8, align 8
  br label %39

39:                                               ; preds = %32, %29
  %40 = phi i64 [ %.pre54, %32 ], [ %30, %29 ]
  %.2 = phi i32 [ %38, %32 ], [ %.1, %29 ]
  %41 = and i64 %40, 8
  %.not51 = icmp eq i64 %41, 0
  br i1 %.not51, label %.thread, label %42

42:                                               ; preds = %39
  %43 = load i32, ptr @hf_pfcp_remote_gtp_u_peer_length_ni, align 4
  %44 = call ptr @proto_tree_add_item_ret_uint(ptr noundef %2, i32 noundef %43, ptr noundef %0, i32 noundef %.2, i32 noundef 2, i32 noundef 0, ptr noundef nonnull %10)
  %45 = add i32 %.2, 2
  %46 = load i32, ptr %10, align 4
  %47 = call fastcc i32 @decode_pfcp_network_instance(ptr noundef %0, ptr noundef %1, ptr noundef %2, ptr noundef %3, i32 noundef %45, i32 noundef %46)
  %48 = add i32 %47, %45
  %.pre55 = load i64, ptr %8, align 8
  %.pre56 = and i64 %.pre55, 8
  %49 = icmp eq i64 %.pre56, 0
  br i1 %49, label %.thread, label %50

50:                                               ; preds = %42
  %51 = load i32, ptr @hf_pfcp_remote_gtp_u_peer_time_stamp, align 4
  %52 = call ptr @proto_tree_add_item(ptr noundef %2, i32 noundef %51, ptr noundef %0, i32 noundef %48, i32 noundef 4, i32 noundef 2)
  %53 = add i32 %48, 4
  br label %.thread

.thread:                                          ; preds = %39, %50, %42
  %.4 = phi i32 [ %53, %50 ], [ %48, %42 ], [ %.2, %39 ]
  %54 = zext i16 %4 to i32
  %55 = icmp slt i32 %.4, %54
  br i1 %55, label %56, label %58

56:                                               ; preds = %.thread
  %57 = call ptr @proto_tree_add_expert(ptr noundef %2, ptr noundef %1, ptr noundef nonnull @ei_pfcp_ie_data_not_decoded, ptr noundef %0, i32 noundef %.4, i32 noundef -1)
  br label %58

58:                                               ; preds = %56, %.thread
  call void @llvm.lifetime.end.p0(i64 4, ptr nonnull %10) #15
  call void @llvm.lifetime.end.p0(i64 4, ptr nonnull %9) #15
  call void @llvm.lifetime.end.p0(i64 8, ptr nonnull %8) #15
  ret void
}